target datalayout = "e-m:e-p270:32:32-p271:32:32-p272:64:64-i64:64-i128:128-f80:128-n8:16:32:64-S128"
target triple = "x86_64-pc-linux-gnu"

@opt_verbosity = internal global i32 6, align 4
@bio_err = external global ptr, align 8
@.str.351 = private unnamed_addr constant [22 x i8] c"../openssl/apps/cmp.c\00", align 1
@.str.352 = private unnamed_addr constant [6 x i8] c"error\00", align 1
@.str.353 = private unnamed_addr constant [1 x i8] zeroinitializer, align 1
@opt_reqin = internal global ptr null, align 8
@.str.586 = private unnamed_addr constant [95 x i8] c"%s:%s:%d:CMP %s: failed to load ir/cr/kur file '%s' attempting to get fallback public key%s%s\0A\00", align 1
@__func__.set_fallback_pubkey = private unnamed_addr constant [20 x i8] c"set_fallback_pubkey\00", align 1
@.str.587 = private unnamed_addr constant [81 x i8] c"%s:%s:%d:CMP %s: failed to get fallback public key from ir/cr/kur file '%s'%s%s\0A\00", align 1
@.str.588 = private unnamed_addr constant [90 x i8] c"%s:%s:%d:CMP %s: failed to get fallback public key obtained from ir/cr/kur file '%s'%s%s\0A\00", align 1

; Function Attrs: nounwind uwtable
define internal i32 @set_fallback_pubkey(ptr noundef %0) #0 {
  %2 = alloca i32, align 4
  %3 = alloca ptr, align 8
  %4 = alloca ptr, align 8
  %5 = alloca ptr, align 8
  %6 = alloca i8, align 1
  %7 = alloca ptr, align 8
  %8 = alloca ptr, align 8
  %9 = alloca ptr, align 8
  %10 = alloca ptr, align 8
  %11 = alloca i32, align 4
  %12 = alloca i32, align 4
  store ptr %0, ptr %3, align 8, !tbaa !17
  call void @llvm.lifetime.start.p0(i64 8, ptr %4) #11
  %13 = load ptr, ptr @opt_reqin, align 8, !tbaa !11
  store ptr %13, ptr %4, align 8, !tbaa !11
  call void @llvm.lifetime.start.p0(i64 8, ptr %5) #11
  %14 = load ptr, ptr %4, align 8, !tbaa !11
  store ptr %14, ptr %5, align 8, !tbaa !11
  call void @llvm.lifetime.start.p0(i64 1, ptr %6) #11
  call void @llvm.lifetime.start.p0(i64 8, ptr %7) #11
  call void @llvm.lifetime.start.p0(i64 8, ptr %8) #11
  call void @llvm.lifetime.start.p0(i64 8, ptr %9) #11
  call void @llvm.lifetime.start.p0(i64 8, ptr %10) #11
  call void @llvm.lifetime.start.p0(i64 4, ptr %11) #11
  store i32 0, ptr %11, align 4, !tbaa !4
  br label %15

15:                                               ; preds = %39, %1
  %16 = load ptr, ptr %5, align 8, !tbaa !11
  %17 = load i8, ptr %16, align 1, !tbaa !23
  %18 = sext i8 %17 to i32
  %19 = icmp ne i32 %18, 44
  br i1 %19, label %20, label %37

20:                                               ; preds = %15
  %21 = call ptr @__ctype_b_loc() #13
  %22 = load ptr, ptr %21, align 8, !tbaa !47
  %23 = load ptr, ptr %5, align 8, !tbaa !11
  %24 = load i8, ptr %23, align 1, !tbaa !23
  %25 = zext i8 %24 to i32
  %26 = sext i32 %25 to i64
  %27 = getelementptr inbounds i16, ptr %22, i64 %26
  %28 = load i16, ptr %27, align 2, !tbaa !49
  %29 = zext i16 %28 to i32
  %30 = and i32 %29, 8192
  %31 = icmp ne i32 %30, 0
  br i1 %31, label %37, label %32

32:                                               ; preds = %20
  %33 = load ptr, ptr %5, align 8, !tbaa !11
  %34 = load i8, ptr %33, align 1, !tbaa !23
  %35 = sext i8 %34 to i32
  %36 = icmp ne i32 %35, 0
  br label %37

37:                                               ; preds = %32, %20, %15
  %38 = phi i1 [ false, %20 ], [ false, %15 ], [ %36, %32 ]
  br i1 %38, label %39, label %42

39:                                               ; preds = %37
  %40 = load ptr, ptr %5, align 8, !tbaa !11
  %41 = getelementptr inbounds nuw i8, ptr %40, i32 1
  store ptr %41, ptr %5, align 8, !tbaa !11
  br label %15, !llvm.loop !111

42:                                               ; preds = %37
  %43 = load ptr, ptr %5, align 8, !tbaa !11
  %44 = load i8, ptr %43, align 1, !tbaa !23
  store i8 %44, ptr %6, align 1, !tbaa !23
  %45 = load ptr, ptr %5, align 8, !tbaa !11
  store i8 0, ptr %45, align 1, !tbaa !23
  %46 = load ptr, ptr %4, align 8, !tbaa !11
  %47 = call ptr @app_get0_libctx()
  %48 = call ptr @app_get0_propq()
  %49 = call ptr @OSSL_CMP_MSG_read(ptr noundef %46, ptr noundef %47, ptr noundef %48)
  store ptr %49, ptr %7, align 8, !tbaa !63
  %50 = load i8, ptr %6, align 1, !tbaa !23
  %51 = load ptr, ptr %5, align 8, !tbaa !11
  store i8 %50, ptr %51, align 1, !tbaa !23
  %52 = load ptr, ptr %7, align 8, !tbaa !63
  %53 = icmp eq ptr %52, null
  br i1 %53, label %54, label %63

54:                                               ; preds = %42
  %55 = load i32, ptr @opt_verbosity, align 4, !tbaa !4
  %56 = icmp sgt i32 3, %55
  br i1 %56, label %57, label %58

57:                                               ; preds = %54
  br label %62

58:                                               ; preds = %54
  %59 = load ptr, ptr @bio_err, align 8, !tbaa !21
  %60 = load ptr, ptr %4, align 8, !tbaa !11
  %61 = call i32 (ptr, ptr, ...) @BIO_printf(ptr noundef %59, ptr noundef @.str.586, ptr noundef @__func__.set_fallback_pubkey, ptr noundef @.str.351, i32 noundef 1663, ptr noundef @.str.352, ptr noundef %60, ptr noundef @.str.353, ptr noundef @.str.353)
  br label %62

62:                                               ; preds = %58, %57
  store i32 0, ptr %2, align 4
  store i32 1, ptr %12, align 4
  br label %104

63:                                               ; preds = %42
  %64 = load ptr, ptr %7, align 8, !tbaa !63
  %65 = call ptr @OSSL_CMP_MSG_get0_certreq_publickey(ptr noundef %64)
  store ptr %65, ptr %8, align 8, !tbaa !112
  %66 = icmp eq ptr %65, null
  br i1 %66, label %71, label %67

67:                                               ; preds = %63
  %68 = load ptr, ptr %8, align 8, !tbaa !112
  %69 = call ptr @X509_PUBKEY_get0(ptr noundef %68)
  store ptr %69, ptr %9, align 8, !tbaa !34
  %70 = icmp eq ptr %69, null
  br i1 %70, label %71, label %80

71:                                               ; preds = %67, %63
  %72 = load i32, ptr @opt_verbosity, align 4, !tbaa !4
  %73 = icmp sgt i32 3, %72
  br i1 %73, label %74, label %75

74:                                               ; preds = %71
  br label %79

75:                                               ; preds = %71
  %76 = load ptr, ptr @bio_err, align 8, !tbaa !21
  %77 = load ptr, ptr %4, align 8, !tbaa !11
  %78 = call i32 (ptr, ptr, ...) @BIO_printf(ptr noundef %76, ptr noundef @.str.587, ptr noundef @__func__.set_fallback_pubkey, ptr noundef @.str.351, i32 noundef 1669, ptr noundef @.str.352, ptr noundef %77, ptr noundef @.str.353, ptr noundef @.str.353)
  br label %79

79:                                               ; preds = %75, %74
  br label %101

80:                                               ; preds = %67
  %81 = load ptr, ptr %9, align 8, !tbaa !34
  %82 = call ptr @EVP_PKEY_dup(ptr noundef %81)
  store ptr %82, ptr %10, align 8, !tbaa !34
  %83 = load ptr, ptr %9, align 8, !tbaa !34
  %84 = icmp eq ptr %83, null
  br i1 %84, label %90, label %85

85:                                               ; preds = %80
  %86 = load ptr, ptr %3, align 8, !tbaa !17
  %87 = load ptr, ptr %10, align 8, !tbaa !34
  %88 = call i32 @OSSL_CMP_CTX_set0_newPkey(ptr noundef %86, i32 noundef 0, ptr noundef %87)
  %89 = icmp ne i32 %88, 0
  br i1 %89, label %100, label %90

90:                                               ; preds = %85, %80
  %91 = load ptr, ptr %10, align 8, !tbaa !34
  call void @EVP_PKEY_free(ptr noundef %91)
  %92 = load i32, ptr @opt_verbosity, align 4, !tbaa !4
  %93 = icmp sgt i32 3, %92
  br i1 %93, label %94, label %95

94:                                               ; preds = %90
  br label %99

95:                                               ; preds = %90
  %96 = load ptr, ptr @bio_err, align 8, !tbaa !21
  %97 = load ptr, ptr %4, align 8, !tbaa !11
  %98 = call i32 (ptr, ptr, ...) @BIO_printf(ptr noundef %96, ptr noundef @.str.588, ptr noundef @__func__.set_fallback_pubkey, ptr noundef @.str.351, i32 noundef 1676, ptr noundef @.str.352, ptr noundef %97, ptr noundef @.str.353, ptr noundef @.str.353)
  br label %99

99:                                               ; preds = %95, %94
  br label %101

100:                                              ; preds = %85
  store i32 1, ptr %11, align 4, !tbaa !4
  br label %101

101:                                              ; preds = %100, %99, %79
  %102 = load ptr, ptr %7, align 8, !tbaa !63
  call void @OSSL_CMP_MSG_free(ptr noundef %102)
  %103 = load i32, ptr %11, align 4, !tbaa !4
  store i32 %103, ptr %2, align 4
  store i32 1, ptr %12, align 4
  br label %104

104:                                              ; preds = %101, %62
  call void @llvm.lifetime.end.p0(i64 4, ptr %11) #11
  call void @llvm.lifetime.end.p0(i64 8, ptr %10) #11
  call void @llvm.lifetime.end.p0(i64 8, ptr %9) #11
  call void @llvm.lifetime.end.p0(i64 8, ptr %8) #11
  call void @llvm.lifetime.end.p0(i64 8, ptr %7) #11
  call void @llvm.lifetime.end.p0(i64 1, ptr %6) #11
  call void @llvm.lifetime.end.p0(i64 8, ptr %5) #11
  call void @llvm.lifetime.end.p0(i64 8, ptr %4) #11
  %105 = load i32, ptr %2, align 4
  ret i32 %105
}