; Function Attrs: nounwind uwtable
define internal fastcc range(i32 0, 2) i32 @set_fallback_pubkey(ptr noundef %0) unnamed_addr #0 {
  %2 = load ptr, ptr @opt_reqin, align 8, !tbaa !4
  %3 = load i8, ptr %2, align 1, !tbaa !9
  %.not32 = icmp eq i8 %3, 44
  br i1 %.not32, label %.critedge, label %.lr.ph

.lr.ph:                                           ; preds = %1
  %4 = tail call ptr @__ctype_b_loc() #15
  %5 = load ptr, ptr %4, align 8, !tbaa !26
  br label %6

6:                                                ; preds = %.lr.ph, %12
  %7 = phi i8 [ %3, %.lr.ph ], [ %14, %12 ]
  %.02433 = phi ptr [ %2, %.lr.ph ], [ %13, %12 ]
  %8 = zext i8 %7 to i64
  %9 = getelementptr inbounds nuw i16, ptr %5, i64 %8
  %10 = load i16, ptr %9, align 2, !tbaa !28
  %11 = and i16 %10, 8192
  %.not29 = icmp ne i16 %11, 0
  %.not30 = icmp eq i8 %7, 0
  %or.cond = or i1 %.not30, %.not29
  br i1 %or.cond, label %.critedge, label %12

12:                                               ; preds = %6
  %13 = getelementptr inbounds nuw i8, ptr %.02433, i64 1
  %14 = load i8, ptr %13, align 1, !tbaa !9
  %.not = icmp eq i8 %14, 44
  br i1 %.not, label %.critedge, label %6, !llvm.loop !80

.critedge:                                        ; preds = %12, %6, %1
  %.024.lcssa = phi ptr [ %2, %1 ], [ %.02433, %6 ], [ %13, %12 ]
  %.lcssa = phi i8 [ 44, %1 ], [ %7, %6 ], [ 44, %12 ]
  store i8 0, ptr %.024.lcssa, align 1, !tbaa !9
  %15 = tail call ptr @app_get0_libctx() #12
  %16 = tail call ptr @app_get0_propq() #12
  %17 = tail call ptr @OSSL_CMP_MSG_read(ptr noundef nonnull %2, ptr noundef %15, ptr noundef %16) #12
  store i8 %.lcssa, ptr %.024.lcssa, align 1, !tbaa !9
  %18 = icmp eq ptr %17, null
  br i1 %18, label %19, label %25

19:                                               ; preds = %.critedge
  %20 = load i32, ptr @opt_verbosity, align 4, !tbaa !10
  %21 = icmp slt i32 %20, 3
  br i1 %21, label %47, label %22

22:                                               ; preds = %19
  %23 = load ptr, ptr @bio_err, align 8, !tbaa !12
  %24 = tail call i32 (ptr, ptr, ...) @BIO_printf(ptr noundef %23, ptr noundef nonnull @.str.586, ptr noundef nonnull @__func__.set_fallback_pubkey, ptr noundef nonnull @.str.351, i32 noundef 1663, ptr noundef nonnull @.str.352, ptr noundef nonnull %2, ptr noundef nonnull @.str.353, ptr noundef nonnull @.str.353) #12
  br label %47

25:                                               ; preds = %.critedge
  %26 = tail call ptr @OSSL_CMP_MSG_get0_certreq_publickey(ptr noundef nonnull %17) #12
  %27 = icmp eq ptr %26, null
  br i1 %27, label %31, label %28

28:                                               ; preds = %25
  %29 = tail call ptr @X509_PUBKEY_get0(ptr noundef nonnull %26) #12
  %30 = icmp eq ptr %29, null
  br i1 %30, label %31, label %37

31:                                               ; preds = %28, %25
  %32 = load i32, ptr @opt_verbosity, align 4, !tbaa !10
  %33 = icmp slt i32 %32, 3
  br i1 %33, label %46, label %34

34:                                               ; preds = %31
  %35 = load ptr, ptr @bio_err, align 8, !tbaa !12
  %36 = tail call i32 (ptr, ptr, ...) @BIO_printf(ptr noundef %35, ptr noundef nonnull @.str.587, ptr noundef nonnull @__func__.set_fallback_pubkey, ptr noundef nonnull @.str.351, i32 noundef 1669, ptr noundef nonnull @.str.352, ptr noundef nonnull %2, ptr noundef nonnull @.str.353, ptr noundef nonnull @.str.353) #12
  br label %46

37:                                               ; preds = %28
  %38 = tail call ptr @EVP_PKEY_dup(ptr noundef nonnull %29) #12
  %39 = tail call i32 @OSSL_CMP_CTX_set0_newPkey(ptr noundef %0, i32 noundef 0, ptr noundef %38) #12
  %.not31 = icmp eq i32 %39, 0
  br i1 %.not31, label %40, label %46

40:                                               ; preds = %37
  tail call void @EVP_PKEY_free(ptr noundef %38) #12
  %41 = load i32, ptr @opt_verbosity, align 4, !tbaa !10
  %42 = icmp slt i32 %41, 3
  br i1 %42, label %46, label %43

43:                                               ; preds = %40
  %44 = load ptr, ptr @bio_err, align 8, !tbaa !12
  %45 = tail call i32 (ptr, ptr, ...) @BIO_printf(ptr noundef %44, ptr noundef nonnull @.str.588, ptr noundef nonnull @__func__.set_fallback_pubkey, ptr noundef nonnull @.str.351, i32 noundef 1676, ptr noundef nonnull @.str.352, ptr noundef nonnull %2, ptr noundef nonnull @.str.353, ptr noundef nonnull @.str.353) #12
  br label %46

46:                                               ; preds = %37, %43, %40, %34, %31
  %.0 = phi i32 [ 0, %31 ], [ 0, %34 ], [ 0, %40 ], [ 0, %43 ], [ 1, %37 ]
  tail call void @OSSL_CMP_MSG_free(ptr noundef nonnull %17) #12
  br label %47

47:                                               ; preds = %22, %19, %46
  %.023 = phi i32 [ %.0, %46 ], [ 0, %19 ], [ 0, %22 ]
  ret i32 %.023
}